target datalayout = "e-m:e-p270:32:32-p271:32:32-p272:64:64-i64:64-i128:128-f80:128-n8:16:32:64-S128"
target triple = "x86_64-pc-linux-gnu"

; Function Attrs: nounwind uwtable
define void @DES_decrypt3(ptr noundef %0, ptr noundef %1, ptr noundef %2, ptr noundef %3) #0 {
  %5 = alloca ptr, align 8
  %6 = alloca ptr, align 8
  %7 = alloca ptr, align 8
  %8 = alloca ptr, align 8
  %9 = alloca i32, align 4
  %10 = alloca i32, align 4
  %11 = alloca i32, align 4
  %12 = alloca i32, align 4
  store ptr %0, ptr %5, align 8, !tbaa !3
  store ptr %1, ptr %6, align 8, !tbaa !8
  store ptr %2, ptr %7, align 8, !tbaa !8
  store ptr %3, ptr %8, align 8, !tbaa !8
  call void @llvm.lifetime.start.p0(i64 4, ptr %9) #2
  call void @llvm.lifetime.start.p0(i64 4, ptr %10) #2
  %13 = load ptr, ptr %5, align 8, !tbaa !3
  %14 = getelementptr inbounds i32, ptr %13, i64 0
  %15 = load i32, ptr %14, align 4, !tbaa !10
  store i32 %15, ptr %9, align 4, !tbaa !10
  %16 = load ptr, ptr %5, align 8, !tbaa !3
  %17 = getelementptr inbounds i32, ptr %16, i64 1
  %18 = load i32, ptr %17, align 4, !tbaa !10
  store i32 %18, ptr %10, align 4, !tbaa !10
  call void @llvm.lifetime.start.p0(i64 4, ptr %11) #2
  %19 = load i32, ptr %10, align 4, !tbaa !10
  %20 = lshr i32 %19, 4
  %21 = load i32, ptr %9, align 4, !tbaa !10
  %22 = xor i32 %20, %21
  %23 = zext i32 %22 to i64
  %24 = and i64 %23, 252645135
  %25 = trunc i64 %24 to i32
  store i32 %25, ptr %11, align 4, !tbaa !10
  %26 = load i32, ptr %11, align 4, !tbaa !10
  %27 = load i32, ptr %9, align 4, !tbaa !10
  %28 = xor i32 %27, %26
  store i32 %28, ptr %9, align 4, !tbaa !10
  %29 = load i32, ptr %11, align 4, !tbaa !10
  %30 = shl i32 %29, 4
  %31 = load i32, ptr %10, align 4, !tbaa !10
  %32 = xor i32 %31, %30
  store i32 %32, ptr %10, align 4, !tbaa !10
  %33 = load i32, ptr %9, align 4, !tbaa !10
  %34 = lshr i32 %33, 16
  %35 = load i32, ptr %10, align 4, !tbaa !10
  %36 = xor i32 %34, %35
  %37 = zext i32 %36 to i64
  %38 = and i64 %37, 65535
  %39 = trunc i64 %38 to i32
  store i32 %39, ptr %11, align 4, !tbaa !10
  %40 = load i32, ptr %11, align 4, !tbaa !10
  %41 = load i32, ptr %10, align 4, !tbaa !10
  %42 = xor i32 %41, %40
  store i32 %42, ptr %10, align 4, !tbaa !10
  %43 = load i32, ptr %11, align 4, !tbaa !10
  %44 = shl i32 %43, 16
  %45 = load i32, ptr %9, align 4, !tbaa !10
  %46 = xor i32 %45, %44
  store i32 %46, ptr %9, align 4, !tbaa !10
  %47 = load i32, ptr %10, align 4, !tbaa !10
  %48 = lshr i32 %47, 2
  %49 = load i32, ptr %9, align 4, !tbaa !10
  %50 = xor i32 %48, %49
  %51 = zext i32 %50 to i64
  %52 = and i64 %51, 858993459
  %53 = trunc i64 %52 to i32
  store i32 %53, ptr %11, align 4, !tbaa !10
  %54 = load i32, ptr %11, align 4, !tbaa !10
  %55 = load i32, ptr %9, align 4, !tbaa !10
  %56 = xor i32 %55, %54
  store i32 %56, ptr %9, align 4, !tbaa !10
  %57 = load i32, ptr %11, align 4, !tbaa !10
  %58 = shl i32 %57, 2
  %59 = load i32, ptr %10, align 4, !tbaa !10
  %60 = xor i32 %59, %58
  store i32 %60, ptr %10, align 4, !tbaa !10
  %61 = load i32, ptr %9, align 4, !tbaa !10
  %62 = lshr i32 %61, 8
  %63 = load i32, ptr %10, align 4, !tbaa !10
  %64 = xor i32 %62, %63
  %65 = zext i32 %64 to i64
  %66 = and i64 %65, 16711935
  %67 = trunc i64 %66 to i32
  store i32 %67, ptr %11, align 4, !tbaa !10
  %68 = load i32, ptr %11, align 4, !tbaa !10
  %69 = load i32, ptr %10, align 4, !tbaa !10
  %70 = xor i32 %69, %68
  store i32 %70, ptr %10, align 4, !tbaa !10
  %71 = load i32, ptr %11, align 4, !tbaa !10
  %72 = shl i32 %71, 8
  %73 = load i32, ptr %9, align 4, !tbaa !10
  %74 = xor i32 %73, %72
  store i32 %74, ptr %9, align 4, !tbaa !10
  %75 = load i32, ptr %10, align 4, !tbaa !10
  %76 = lshr i32 %75, 1
  %77 = load i32, ptr %9, align 4, !tbaa !10
  %78 = xor i32 %76, %77
  %79 = zext i32 %78 to i64
  %80 = and i64 %79, 1431655765
  %81 = trunc i64 %80 to i32
  store i32 %81, ptr %11, align 4, !tbaa !10
  %82 = load i32, ptr %11, align 4, !tbaa !10
  %83 = load i32, ptr %9, align 4, !tbaa !10
  %84 = xor i32 %83, %82
  store i32 %84, ptr %9, align 4, !tbaa !10
  %85 = load i32, ptr %11, align 4, !tbaa !10
  %86 = shl i32 %85, 1
  %87 = load i32, ptr %10, align 4, !tbaa !10
  %88 = xor i32 %87, %86
  store i32 %88, ptr %10, align 4, !tbaa !10
  call void @llvm.lifetime.end.p0(i64 4, ptr %11) #2
  %89 = load i32, ptr %9, align 4, !tbaa !10
  %90 = load ptr, ptr %5, align 8, !tbaa !3
  %91 = getelementptr inbounds i32, ptr %90, i64 0
  store i32 %89, ptr %91, align 4, !tbaa !10
  %92 = load i32, ptr %10, align 4, !tbaa !10
  %93 = load ptr, ptr %5, align 8, !tbaa !3
  %94 = getelementptr inbounds i32, ptr %93, i64 1
  store i32 %92, ptr %94, align 4, !tbaa !10
  %95 = load ptr, ptr %5, align 8, !tbaa !3
  %96 = load ptr, ptr %8, align 8, !tbaa !8
  call void @DES_encrypt2(ptr noundef %95, ptr noundef %96, i32 noundef 0)
  %97 = load ptr, ptr %5, align 8, !tbaa !3
  %98 = load ptr, ptr %7, align 8, !tbaa !8
  call void @DES_encrypt2(ptr noundef %97, ptr noundef %98, i32 noundef 1)
  %99 = load ptr, ptr %5, align 8, !tbaa !3
  %100 = load ptr, ptr %6, align 8, !tbaa !8
  call void @DES_encrypt2(ptr noundef %99, ptr noundef %100, i32 noundef 0)
  %101 = load ptr, ptr %5, align 8, !tbaa !3
  %102 = getelementptr inbounds i32, ptr %101, i64 0
  %103 = load i32, ptr %102, align 4, !tbaa !10
  store i32 %103, ptr %9, align 4, !tbaa !10
  %104 = load ptr, ptr %5, align 8, !tbaa !3
  %105 = getelementptr inbounds i32, ptr %104, i64 1
  %106 = load i32, ptr %105, align 4, !tbaa !10
  store i32 %106, ptr %10, align 4, !tbaa !10
  call void @llvm.lifetime.start.p0(i64 4, ptr %12) #2
  %107 = load i32, ptr %10, align 4, !tbaa !10
  %108 = lshr i32 %107, 1
  %109 = load i32, ptr %9, align 4, !tbaa !10
  %110 = xor i32 %108, %109
  %111 = zext i32 %110 to i64
  %112 = and i64 %111, 1431655765
  %113 = trunc i64 %112 to i32
  store i32 %113, ptr %12, align 4, !tbaa !10
  %114 = load i32, ptr %12, align 4, !tbaa !10
  %115 = load i32, ptr %9, align 4, !tbaa !10
  %116 = xor i32 %115, %114
  store i32 %116, ptr %9, align 4, !tbaa !10
  %117 = load i32, ptr %12, align 4, !tbaa !10
  %118 = shl i32 %117, 1
  %119 = load i32, ptr %10, align 4, !tbaa !10
  %120 = xor i32 %119, %118
  store i32 %120, ptr %10, align 4, !tbaa !10
  %121 = load i32, ptr %9, align 4, !tbaa !10
  %122 = lshr i32 %121, 8
  %123 = load i32, ptr %10, align 4, !tbaa !10
  %124 = xor i32 %122, %123
  %125 = zext i32 %124 to i64
  %126 = and i64 %125, 16711935
  %127 = trunc i64 %126 to i32
  store i32 %127, ptr %12, align 4, !tbaa !10
  %128 = load i32, ptr %12, align 4, !tbaa !10
  %129 = load i32, ptr %10, align 4, !tbaa !10
  %130 = xor i32 %129, %128
  store i32 %130, ptr %10, align 4, !tbaa !10
  %131 = load i32, ptr %12, align 4, !tbaa !10
  %132 = shl i32 %131, 8
  %133 = load i32, ptr %9, align 4, !tbaa !10
  %134 = xor i32 %133, %132
  store i32 %134, ptr %9, align 4, !tbaa !10
  %135 = load i32, ptr %10, align 4, !tbaa !10
  %136 = lshr i32 %135, 2
  %137 = load i32, ptr %9, align 4, !tbaa !10
  %138 = xor i32 %136, %137
  %139 = zext i32 %138 to i64
  %140 = and i64 %139, 858993459
  %141 = trunc i64 %140 to i32
  store i32 %141, ptr %12, align 4, !tbaa !10
  %142 = load i32, ptr %12, align 4, !tbaa !10
  %143 = load i32, ptr %9, align 4, !tbaa !10
  %144 = xor i32 %143, %142
  store i32 %144, ptr %9, align 4, !tbaa !10
  %145 = load i32, ptr %12, align 4, !tbaa !10
  %146 = shl i32 %145, 2
  %147 = load i32, ptr %10, align 4, !tbaa !10
  %148 = xor i32 %147, %146
  store i32 %148, ptr %10, align 4, !tbaa !10
  %149 = load i32, ptr %9, align 4, !tbaa !10
  %150 = lshr i32 %149, 16
  %151 = load i32, ptr %10, align 4, !tbaa !10
  %152 = xor i32 %150, %151
  %153 = zext i32 %152 to i64
  %154 = and i64 %153, 65535
  %155 = trunc i64 %154 to i32
  store i32 %155, ptr %12, align 4, !tbaa !10
  %156 = load i32, ptr %12, align 4, !tbaa !10
  %157 = load i32, ptr %10, align 4, !tbaa !10
  %158 = xor i32 %157, %156
  store i32 %158, ptr %10, align 4, !tbaa !10
  %159 = load i32, ptr %12, align 4, !tbaa !10
  %160 = shl i32 %159, 16
  %161 = load i32, ptr %9, align 4, !tbaa !10
  %162 = xor i32 %161, %160
  store i32 %162, ptr %9, align 4, !tbaa !10
  %163 = load i32, ptr %10, align 4, !tbaa !10
  %164 = lshr i32 %163, 4
  %165 = load i32, ptr %9, align 4, !tbaa !10
  %166 = xor i32 %164, %165
  %167 = zext i32 %166 to i64
  %168 = and i64 %167, 252645135
  %169 = trunc i64 %168 to i32
  store i32 %169, ptr %12, align 4, !tbaa !10
  %170 = load i32, ptr %12, align 4, !tbaa !10
  %171 = load i32, ptr %9, align 4, !tbaa !10
  %172 = xor i32 %171, %170
  store i32 %172, ptr %9, align 4, !tbaa !10
  %173 = load i32, ptr %12, align 4, !tbaa !10
  %174 = shl i32 %173, 4
  %175 = load i32, ptr %10, align 4, !tbaa !10
  %176 = xor i32 %175, %174
  store i32 %176, ptr %10, align 4, !tbaa !10
  call void @llvm.lifetime.end.p0(i64 4, ptr %12) #2
  %177 = load i32, ptr %9, align 4, !tbaa !10
  %178 = load ptr, ptr %5, align 8, !tbaa !3
  %179 = getelementptr inbounds i32, ptr %178, i64 0
  store i32 %177, ptr %179, align 4, !tbaa !10
  %180 = load i32, ptr %10, align 4, !tbaa !10
  %181 = load ptr, ptr %5, align 8, !tbaa !3
  %182 = getelementptr inbounds i32, ptr %181, i64 1
  store i32 %180, ptr %182, align 4, !tbaa !10
  call void @llvm.lifetime.end.p0(i64 4, ptr %10) #2
  call void @llvm.lifetime.end.p0(i64 4, ptr %9) #2
  ret void
}